target datalayout = "e-m:e-p270:32:32-p271:32:32-p272:64:64-i64:64-i128:128-f80:128-n8:16:32:64-S128"
target triple = "x86_64-pc-linux-gnu"

%struct.xml_flags_t = type { i8, [3 x i8] }

@.str.20 = private unnamed_addr constant [3 x i8] c">\0A\00", align 1
@.str.39 = private unnamed_addr constant [3 x i8] c"<g\00", align 1
@.str.40 = private unnamed_addr constant [8 x i8] c" id=\22a_\00", align 1
@.str.41 = private unnamed_addr constant [4 x i8] c"><a\00", align 1
@.str.42 = private unnamed_addr constant [14 x i8] c" xlink:href=\22\00", align 1
@.str.43 = private unnamed_addr constant [15 x i8] c" xlink:title=\22\00", align 1
@__const.svg_begin_anchor.flags = private unnamed_addr constant %struct.xml_flags_t { i8 7, [3 x i8] zeroinitializer }, align 4
@.str.44 = private unnamed_addr constant [10 x i8] c" target=\22\00", align 1

; Function Attrs: nounwind uwtable
define internal void @svg_begin_anchor(ptr noundef %0, ptr noundef %1, ptr noundef %2, ptr noundef %3, ptr noundef %4) #0 {
  %6 = alloca ptr, align 8
  %7 = alloca ptr, align 8
  %8 = alloca ptr, align 8
  %9 = alloca ptr, align 8
  %10 = alloca ptr, align 8
  %11 = alloca %struct.xml_flags_t, align 4
  %12 = alloca %struct.xml_flags_t, align 4
  store ptr %0, ptr %6, align 8, !tbaa !3
  store ptr %1, ptr %7, align 8, !tbaa !46
  store ptr %2, ptr %8, align 8, !tbaa !46
  store ptr %3, ptr %9, align 8, !tbaa !46
  store ptr %4, ptr %10, align 8, !tbaa !46
  %13 = load ptr, ptr %6, align 8, !tbaa !3
  %14 = call i32 @gvputs(ptr noundef %13, ptr noundef @.str.39)
  %15 = load ptr, ptr %10, align 8, !tbaa !46
  %16 = icmp ne ptr %15, null
  br i1 %16, label %17, label %25

17:                                               ; preds = %5
  %18 = load ptr, ptr %6, align 8, !tbaa !3
  %19 = call i32 @gvputs(ptr noundef %18, ptr noundef @.str.40)
  %20 = load ptr, ptr %6, align 8, !tbaa !3
  %21 = load ptr, ptr %10, align 8, !tbaa !46
  %22 = call i32 @gvputs_xml(ptr noundef %20, ptr noundef %21)
  %23 = load ptr, ptr %6, align 8, !tbaa !3
  %24 = call i32 @gvputc(ptr noundef %23, i32 noundef 34)
  br label %25

25:                                               ; preds = %17, %5
  %26 = load ptr, ptr %6, align 8, !tbaa !3
  %27 = call i32 @gvputs(ptr noundef %26, ptr noundef @.str.41)
  %28 = load ptr, ptr %7, align 8, !tbaa !46
  %29 = icmp ne ptr %28, null
  br i1 %29, label %30, label %45

30:                                               ; preds = %25
  %31 = load ptr, ptr %7, align 8, !tbaa !46
  %32 = getelementptr inbounds i8, ptr %31, i64 0
  %33 = load i8, ptr %32, align 1, !tbaa !47
  %34 = sext i8 %33 to i32
  %35 = icmp ne i32 %34, 0
  br i1 %35, label %36, label %45

36:                                               ; preds = %30
  %37 = load ptr, ptr %6, align 8, !tbaa !3
  %38 = call i32 @gvputs(ptr noundef %37, ptr noundef @.str.42)
  call void @llvm.lifetime.start.p0(i64 4, ptr %11) #9
  call void @llvm.memset.p0.i64(ptr align 4 %11, i8 0, i64 4, i1 false)
  %39 = load ptr, ptr %7, align 8, !tbaa !46
  %40 = load ptr, ptr %6, align 8, !tbaa !3
  %41 = load i32, ptr %11, align 4
  %42 = call i32 @xml_escape(ptr noundef %39, i32 %41, ptr noundef @gvputs, ptr noundef %40)
  %43 = load ptr, ptr %6, align 8, !tbaa !3
  %44 = call i32 @gvputc(ptr noundef %43, i32 noundef 34)
  call void @llvm.lifetime.end.p0(i64 4, ptr %11) #9
  br label %45

45:                                               ; preds = %36, %30, %25
  %46 = load ptr, ptr %8, align 8, !tbaa !46
  %47 = icmp ne ptr %46, null
  br i1 %47, label %48, label %63

48:                                               ; preds = %45
  %49 = load ptr, ptr %8, align 8, !tbaa !46
  %50 = getelementptr inbounds i8, ptr %49, i64 0
  %51 = load i8, ptr %50, align 1, !tbaa !47
  %52 = sext i8 %51 to i32
  %53 = icmp ne i32 %52, 0
  br i1 %53, label %54, label %63

54:                                               ; preds = %48
  %55 = load ptr, ptr %6, align 8, !tbaa !3
  %56 = call i32 @gvputs(ptr noundef %55, ptr noundef @.str.43)
  call void @llvm.lifetime.start.p0(i64 4, ptr %12) #9
  call void @llvm.memcpy.p0.p0.i64(ptr align 4 %12, ptr align 4 @__const.svg_begin_anchor.flags, i64 4, i1 false)
  %57 = load ptr, ptr %8, align 8, !tbaa !46
  %58 = load ptr, ptr %6, align 8, !tbaa !3
  %59 = load i32, ptr %12, align 4
  %60 = call i32 @xml_escape(ptr noundef %57, i32 %59, ptr noundef @gvputs, ptr noundef %58)
  %61 = load ptr, ptr %6, align 8, !tbaa !3
  %62 = call i32 @gvputc(ptr noundef %61, i32 noundef 34)
  call void @llvm.lifetime.end.p0(i64 4, ptr %12) #9
  br label %63

63:                                               ; preds = %54, %48, %45
  %64 = load ptr, ptr %9, align 8, !tbaa !46
  %65 = icmp ne ptr %64, null
  br i1 %65, label %66, label %80

66:                                               ; preds = %63
  %67 = load ptr, ptr %9, align 8, !tbaa !46
  %68 = getelementptr inbounds i8, ptr %67, i64 0
  %69 = load i8, ptr %68, align 1, !tbaa !47
  %70 = sext i8 %69 to i32
  %71 = icmp ne i32 %70, 0
  br i1 %71, label %72, label %80

72:                                               ; preds = %66
  %73 = load ptr, ptr %6, align 8, !tbaa !3
  %74 = call i32 @gvputs(ptr noundef %73, ptr noundef @.str.44)
  %75 = load ptr, ptr %6, align 8, !tbaa !3
  %76 = load ptr, ptr %9, align 8, !tbaa !46
  %77 = call i32 @gvputs_xml(ptr noundef %75, ptr noundef %76)
  %78 = load ptr, ptr %6, align 8, !tbaa !3
  %79 = call i32 @gvputc(ptr noundef %78, i32 noundef 34)
  br label %80

80:                                               ; preds = %72, %66, %63
  %81 = load ptr, ptr %6, align 8, !tbaa !3
  %82 = call i32 @gvputs(ptr noundef %81, ptr noundef @.str.20)
  ret void
}