; Function Attrs: nounwind uwtable
define internal void @svg_begin_anchor(ptr noundef %0, ptr noundef %1, ptr noundef %2, ptr noundef %3, ptr noundef %4) #0 {
  %6 = tail call i32 @gvputs(ptr noundef %0, ptr noundef nonnull @.str.39) #11
  %.not = icmp eq ptr %4, null
  br i1 %.not, label %11, label %7

7:                                                ; preds = %5
  %8 = tail call i32 @gvputs(ptr noundef %0, ptr noundef nonnull @.str.40) #11
  %9 = tail call i32 @gvputs_xml(ptr noundef %0, ptr noundef nonnull %4) #11
  %10 = tail call i32 @gvputc(ptr noundef %0, i32 noundef 34) #11
  br label %11

11:                                               ; preds = %7, %5
  %12 = tail call i32 @gvputs(ptr noundef %0, ptr noundef nonnull @.str.41) #11
  %.not30 = icmp eq ptr %1, null
  br i1 %.not30, label %19, label %13

13:                                               ; preds = %11
  %14 = load i8, ptr %1, align 1, !tbaa !46
  %.not31 = icmp eq i8 %14, 0
  br i1 %.not31, label %19, label %15

15:                                               ; preds = %13
  %16 = tail call i32 @gvputs(ptr noundef %0, ptr noundef nonnull @.str.42) #11
  %17 = tail call i32 @xml_escape(ptr noundef nonnull %1, i32 0, ptr noundef nonnull @gvputs, ptr noundef %0) #11
  %18 = tail call i32 @gvputc(ptr noundef %0, i32 noundef 34) #11
  br label %19

19:                                               ; preds = %15, %13, %11
  %.not32 = icmp eq ptr %2, null
  br i1 %.not32, label %26, label %20

20:                                               ; preds = %19
  %21 = load i8, ptr %2, align 1, !tbaa !46
  %.not33 = icmp eq i8 %21, 0
  br i1 %.not33, label %26, label %22

22:                                               ; preds = %20
  %23 = tail call i32 @gvputs(ptr noundef %0, ptr noundef nonnull @.str.43) #11
  %24 = tail call i32 @xml_escape(ptr noundef nonnull %2, i32 7, ptr noundef nonnull @gvputs, ptr noundef %0) #11
  %25 = tail call i32 @gvputc(ptr noundef %0, i32 noundef 34) #11
  br label %26

26:                                               ; preds = %22, %20, %19
  %.not34 = icmp eq ptr %3, null
  br i1 %.not34, label %33, label %27

27:                                               ; preds = %26
  %28 = load i8, ptr %3, align 1, !tbaa !46
  %.not35 = icmp eq i8 %28, 0
  br i1 %.not35, label %33, label %29

29:                                               ; preds = %27
  %30 = tail call i32 @gvputs(ptr noundef %0, ptr noundef nonnull @.str.44) #11
  %31 = tail call i32 @gvputs_xml(ptr noundef %0, ptr noundef nonnull %3) #11
  %32 = tail call i32 @gvputc(ptr noundef %0, i32 noundef 34) #11
  br label %33

33:                                               ; preds = %29, %27, %26
  %34 = tail call i32 @gvputs(ptr noundef %0, ptr noundef nonnull @.str.20) #11
  ret void
}